target datalayout = "e-m:e-p270:32:32-p271:32:32-p272:64:64-i64:64-i128:128-f80:128-n8:16:32:64-S128"
target triple = "x86_64-pc-linux-gnu"

%struct._zval_struct = type { %union._zend_value, %union.anon.3, %union.anon.6 }
%union._zend_value = type { i64 }
%union.anon.3 = type { i32 }
%union.anon.6 = type { i32 }
%struct._zend_refcounted_h = type { i32, %union.anon }
%union.anon = type { i32 }
%struct._pcre_cache_entry = type { ptr, ptr, i32, i32, i32, i32, i32 }
%struct._zend_string = type { %struct._zend_refcounted_h, i64, i64, [1 x i8] }

; Function Attrs: alwaysinline nounwind uwtable
define internal i32 @zend_gc_delref(ptr noundef %0) #3 {
  %2 = alloca ptr, align 8
  store ptr %0, ptr %2, align 8, !tbaa !109
  %3 = load ptr, ptr %2, align 8, !tbaa !109
  %4 = getelementptr inbounds nuw %struct._zend_refcounted_h, ptr %3, i32 0, i32 0
  %5 = load i32, ptr %4, align 4, !tbaa !111
  %6 = icmp ugt i32 %5, 0
  call void @llvm.assume(i1 %6)
  br label %7

7:                                                ; preds = %1
  br label %8

8:                                                ; preds = %7
  %9 = load ptr, ptr %2, align 8, !tbaa !109
  %10 = getelementptr inbounds nuw %struct._zend_refcounted_h, ptr %9, i32 0, i32 0
  %11 = load i32, ptr %10, align 4, !tbaa !111
  %12 = add i32 %11, -1
  store i32 %12, ptr %10, align 4, !tbaa !111
  ret i32 %12
}

; Function Attrs: alwaysinline nounwind uwtable
define internal i32 @zval_gc_flags(i32 noundef %0) #3 {
  %2 = alloca i32, align 4
  store i32 %0, ptr %2, align 4, !tbaa !13
  %3 = load i32, ptr %2, align 4, !tbaa !13
  %4 = lshr i32 %3, 0
  %5 = and i32 %4, 1008
  ret i32 %5
}

; Function Attrs: alwaysinline nounwind uwtable
define internal void @zend_string_release_ex(ptr noundef %0, i1 noundef zeroext %1) #3 {
  %3 = alloca ptr, align 8
  %4 = alloca i8, align 1
  store ptr %0, ptr %3, align 8, !tbaa !4
  %5 = zext i1 %1 to i8
  store i8 %5, ptr %4, align 1, !tbaa !9
  %6 = load ptr, ptr %3, align 8, !tbaa !4
  %7 = getelementptr inbounds nuw %struct._zend_string, ptr %6, i32 0, i32 0
  %8 = getelementptr inbounds nuw %struct._zend_refcounted_h, ptr %7, i32 0, i32 1
  %9 = load i32, ptr %8, align 4, !tbaa !45
  %10 = call i32 @zval_gc_flags(i32 noundef %9)
  %11 = and i32 %10, 64
  %12 = icmp ne i32 %11, 0
  br i1 %12, label %27, label %13

13:                                               ; preds = %2
  %14 = load ptr, ptr %3, align 8, !tbaa !4
  %15 = getelementptr inbounds nuw %struct._zend_string, ptr %14, i32 0, i32 0
  %16 = call i32 @zend_gc_delref(ptr noundef %15)
  %17 = icmp eq i32 %16, 0
  br i1 %17, label %18, label %26

18:                                               ; preds = %13
  %19 = load i8, ptr %4, align 1, !tbaa !9, !range !17, !noundef !18
  %20 = trunc i8 %19 to i1
  br i1 %20, label %21, label %23

21:                                               ; preds = %18
  %22 = load ptr, ptr %3, align 8, !tbaa !4
  call void @free(ptr noundef %22) #17
  br label %25

23:                                               ; preds = %18
  %24 = load ptr, ptr %3, align 8, !tbaa !4
  call void @_efree(ptr noundef %24)
  br label %25

25:                                               ; preds = %23, %21
  br label %26

26:                                               ; preds = %25, %13
  br label %27

27:                                               ; preds = %26, %2
  ret void
}

; Function Attrs: nounwind uwtable
define internal void @free_subpats_table(ptr noundef %0, i32 noundef %1) #0 {
  %3 = alloca ptr, align 8
  %4 = alloca i32, align 4
  %5 = alloca i32, align 4
  store ptr %0, ptr %3, align 8, !tbaa !99
  store i32 %1, ptr %4, align 4, !tbaa !13
  call void @llvm.lifetime.start.p0(i64 4, ptr %5) #17
  store i32 0, ptr %5, align 4, !tbaa !13
  br label %6

6:                                                ; preds = %24, %2
  %7 = load i32, ptr %5, align 4, !tbaa !13
  %8 = load i32, ptr %4, align 4, !tbaa !13
  %9 = icmp ult i32 %7, %8
  br i1 %9, label %10, label %27

10:                                               ; preds = %6
  %11 = load ptr, ptr %3, align 8, !tbaa !99
  %12 = load i32, ptr %5, align 4, !tbaa !13
  %13 = zext i32 %12 to i64
  %14 = getelementptr inbounds nuw ptr, ptr %11, i64 %13
  %15 = load ptr, ptr %14, align 8, !tbaa !4
  %16 = icmp ne ptr %15, null
  br i1 %16, label %17, label %23

17:                                               ; preds = %10
  %18 = load ptr, ptr %3, align 8, !tbaa !99
  %19 = load i32, ptr %5, align 4, !tbaa !13
  %20 = zext i32 %19 to i64
  %21 = getelementptr inbounds nuw ptr, ptr %18, i64 %20
  %22 = load ptr, ptr %21, align 8, !tbaa !4
  call void @zend_string_release_ex(ptr noundef %22, i1 noundef zeroext false)
  br label %23

23:                                               ; preds = %17, %10
  br label %24

24:                                               ; preds = %23
  %25 = load i32, ptr %5, align 4, !tbaa !13
  %26 = add i32 %25, 1
  store i32 %26, ptr %5, align 4, !tbaa !13
  br label %6

27:                                               ; preds = %6
  %28 = load ptr, ptr %3, align 8, !tbaa !99
  call void @_efree(ptr noundef %28)
  call void @llvm.lifetime.end.p0(i64 4, ptr %5) #17
  ret void
}

; Function Attrs: nounwind uwtable
define internal void @php_free_pcre_cache(ptr noundef %0) #0 {
  %2 = alloca ptr, align 8
  %3 = alloca ptr, align 8
  %4 = alloca i32, align 4
  store ptr %0, ptr %2, align 8, !tbaa !44
  call void @llvm.lifetime.start.p0(i64 8, ptr %3) #17
  %5 = load ptr, ptr %2, align 8, !tbaa !44
  %6 = getelementptr inbounds nuw %struct._zval_struct, ptr %5, i32 0, i32 0
  %7 = load ptr, ptr %6, align 8, !tbaa !45
  store ptr %7, ptr %3, align 8, !tbaa !64
  %8 = load ptr, ptr %3, align 8, !tbaa !64
  %9 = icmp ne ptr %8, null
  br i1 %9, label %11, label %10

10:                                               ; preds = %1
  store i32 1, ptr %4, align 4
  br label %29

11:                                               ; preds = %1
  %12 = load ptr, ptr %3, align 8, !tbaa !64
  %13 = getelementptr inbounds nuw %struct._pcre_cache_entry, ptr %12, i32 0, i32 1
  %14 = load ptr, ptr %13, align 8, !tbaa !63
  %15 = icmp ne ptr %14, null
  br i1 %15, label %16, label %24

16:                                               ; preds = %11
  %17 = load ptr, ptr %3, align 8, !tbaa !64
  %18 = getelementptr inbounds nuw %struct._pcre_cache_entry, ptr %17, i32 0, i32 1
  %19 = load ptr, ptr %18, align 8, !tbaa !63
  %20 = load ptr, ptr %3, align 8, !tbaa !64
  %21 = getelementptr inbounds nuw %struct._pcre_cache_entry, ptr %20, i32 0, i32 4
  %22 = load i32, ptr %21, align 8, !tbaa !72
  %23 = add i32 %22, 1
  call void @free_subpats_table(ptr noundef %19, i32 noundef %23)
  br label %24

24:                                               ; preds = %16, %11
  %25 = load ptr, ptr %3, align 8, !tbaa !64
  %26 = getelementptr inbounds nuw %struct._pcre_cache_entry, ptr %25, i32 0, i32 0
  %27 = load ptr, ptr %26, align 8, !tbaa !57
  call void @php_pcre2_code_free(ptr noundef %27)
  %28 = load ptr, ptr %3, align 8, !tbaa !64
  call void @free(ptr noundef %28) #17
  store i32 0, ptr %4, align 4
  br label %29

29:                                               ; preds = %24, %10
  call void @llvm.lifetime.end.p0(i64 8, ptr %3) #17
  %30 = load i32, ptr %4, align 4
  switch i32 %30, label %32 [
    i32 0, label %31
    i32 1, label %31
  ]

31:                                               ; preds = %29, %29
  ret void

32:                                               ; preds = %29
  unreachable
}