; Function Attrs: nounwind uwtable
define internal void @php_free_pcre_cache(ptr noundef readonly captures(none) %0) #0 {
  %2 = load ptr, ptr %0, align 8, !tbaa !11
  %.not = icmp eq ptr %2, null
  br i1 %.not, label %24, label %3

3:                                                ; preds = %1
  %4 = getelementptr inbounds nuw i8, ptr %2, i64 8
  %5 = load ptr, ptr %4, align 8, !tbaa !64
  %.not8 = icmp eq ptr %5, null
  br i1 %.not8, label %22, label %6

6:                                                ; preds = %3
  %7 = getelementptr inbounds nuw i8, ptr %2, i64 24
  %8 = load i32, ptr %7, align 8, !tbaa !65
  %9 = add i32 %8, 1
  %.not9.i = icmp eq i32 %9, 0
  br i1 %.not9.i, label %free_subpats_table.exit, label %.lr.ph.preheader.i

.lr.ph.preheader.i:                               ; preds = %6
  %wide.trip.count.i = zext i32 %9 to i64
  br label %.lr.ph.i

.lr.ph.i:                                         ; preds = %zend_string_release_ex.exit.i, %.lr.ph.preheader.i
  %indvars.iv.i = phi i64 [ 0, %.lr.ph.preheader.i ], [ %indvars.iv.next.i, %zend_string_release_ex.exit.i ]
  %10 = getelementptr inbounds nuw ptr, ptr %5, i64 %indvars.iv.i
  %11 = load ptr, ptr %10, align 8, !tbaa !96
  %.not.i = icmp eq ptr %11, null
  br i1 %.not.i, label %zend_string_release_ex.exit.i, label %12

12:                                               ; preds = %.lr.ph.i
  %13 = getelementptr inbounds nuw i8, ptr %11, i64 4
  %14 = load i32, ptr %13, align 4, !tbaa !11
  %15 = and i32 %14, 64
  %.not.i.i = icmp eq i32 %15, 0
  br i1 %.not.i.i, label %16, label %zend_string_release_ex.exit.i

16:                                               ; preds = %12
  %17 = load i32, ptr %11, align 4, !tbaa !12
  %18 = icmp ne i32 %17, 0
  tail call void @llvm.assume(i1 %18)
  %19 = add i32 %17, -1
  store i32 %19, ptr %11, align 4, !tbaa !12
  %20 = icmp eq i32 %19, 0
  br i1 %20, label %21, label %zend_string_release_ex.exit.i

21:                                               ; preds = %16
  tail call void @_efree(ptr noundef nonnull %11) #24
  br label %zend_string_release_ex.exit.i

zend_string_release_ex.exit.i:                    ; preds = %21, %16, %12, %.lr.ph.i
  %indvars.iv.next.i = add nuw nsw i64 %indvars.iv.i, 1
  %exitcond.not.i = icmp eq i64 %indvars.iv.next.i, %wide.trip.count.i
  br i1 %exitcond.not.i, label %free_subpats_table.exit, label %.lr.ph.i

free_subpats_table.exit:                          ; preds = %zend_string_release_ex.exit.i, %6
  tail call void @_efree(ptr noundef nonnull %5) #24
  br label %22

22:                                               ; preds = %free_subpats_table.exit, %3
  %23 = load ptr, ptr %2, align 8, !tbaa !57
  tail call void @php_pcre2_code_free(ptr noundef %23) #24
  tail call void @free(ptr noundef %2) #24
  br label %24

24:                                               ; preds = %1, %22
  ret void
}